target datalayout = "e-m:e-p270:32:32-p271:32:32-p272:64:64-i64:64-i128:128-f80:128-n8:16:32:64-S128"
target triple = "x86_64-pc-linux-gnu"

%"class.icu_77::PtnSkeleton" = type <{ ptr, [16 x i32], %"class.icu_77::SkeletonFields", %"class.icu_77::SkeletonFields", i8, [7 x i8] }>
%"class.icu_77::SkeletonFields" = type { [16 x i8], [16 x i8] }

@_ZN6icu_7711PtnSkeletonC1Ev = unnamed_addr alias void (ptr), ptr @_ZN6icu_7711PtnSkeletonC2Ev
@_ZN6icu_7711PtnSkeletonD1Ev = unnamed_addr alias void (ptr), ptr @_ZN6icu_7711PtnSkeletonD2Ev

; Function Attrs: mustprogress uwtable
define void @_ZN6icu_7715DateTimeMatcher3setERKNS_13UnicodeStringEPNS_12FormatParserE(ptr noundef nonnull align 8 dereferenceable(152) %0, ptr noundef nonnull align 8 dereferenceable(64) %1, ptr noundef %2) #1 align 2 personality ptr @__gxx_personality_v0 {
  %4 = alloca ptr, align 8
  %5 = alloca ptr, align 8
  %6 = alloca ptr, align 8
  %7 = alloca %"class.icu_77::PtnSkeleton", align 8
  %8 = alloca ptr, align 8
  %9 = alloca i32, align 4
  store ptr %0, ptr %4, align 8, !tbaa !71
  store ptr %1, ptr %5, align 8, !tbaa !60
  store ptr %2, ptr %6, align 8, !tbaa !69
  %10 = load ptr, ptr %4, align 8
  call void @llvm.lifetime.start.p0(i64 144, ptr %7) #13
  call void @_ZN6icu_7711PtnSkeletonC1Ev(ptr noundef nonnull align 8 dereferenceable(137) %7)
  %11 = load ptr, ptr %5, align 8, !tbaa !60
  %12 = load ptr, ptr %6, align 8, !tbaa !69
  invoke void @_ZN6icu_7715DateTimeMatcher3setERKNS_13UnicodeStringEPNS_12FormatParserERNS_11PtnSkeletonE(ptr noundef nonnull align 8 dereferenceable(152) %10, ptr noundef nonnull align 8 dereferenceable(64) %11, ptr noundef %12, ptr noundef nonnull align 8 dereferenceable(137) %7)
          to label %13 unwind label %14

13:                                               ; preds = %3
  call void @_ZN6icu_7711PtnSkeletonD1Ev(ptr noundef nonnull align 8 dereferenceable(137) %7) #13
  call void @llvm.lifetime.end.p0(i64 144, ptr %7) #13
  ret void

14:                                               ; preds = %3
  %15 = landingpad { ptr, i32 }
          cleanup
  %16 = extractvalue { ptr, i32 } %15, 0
  store ptr %16, ptr %8, align 8
  %17 = extractvalue { ptr, i32 } %15, 1
  store i32 %17, ptr %9, align 4
  call void @_ZN6icu_7711PtnSkeletonD1Ev(ptr noundef nonnull align 8 dereferenceable(137) %7) #13
  call void @llvm.lifetime.end.p0(i64 144, ptr %7) #13
  br label %18

18:                                               ; preds = %14
  %19 = load ptr, ptr %8, align 8
  %20 = load i32, ptr %9, align 4
  %21 = insertvalue { ptr, i32 } poison, ptr %19, 0
  %22 = insertvalue { ptr, i32 } %21, i32 %20, 1
  resume { ptr, i32 } %22
}