; Function Attrs: mustprogress uwtable
define void @_ZN6icu_7715DateTimeMatcher3setERKNS_13UnicodeStringEPNS_12FormatParserE(ptr noundef nonnull writeonly align 8 captures(none) dereferenceable(152) %0, ptr noundef nonnull align 8 dereferenceable(64) %1, ptr noundef initializes((3208, 3212)) %2) local_unnamed_addr #1 align 2 personality ptr @__gxx_personality_v0 {
  %4 = alloca %"class.icu_77::PtnSkeleton", align 8
  call void @llvm.lifetime.start.p0(i64 144, ptr nonnull %4) #35
  call void @_ZN6icu_7711PtnSkeletonC1Ev(ptr noundef nonnull align 8 dereferenceable(137) %4)
  invoke void @_ZN6icu_7715DateTimeMatcher3setERKNS_13UnicodeStringEPNS_12FormatParserERNS_11PtnSkeletonE(ptr noundef nonnull align 8 dereferenceable(152) %0, ptr noundef nonnull align 8 dereferenceable(64) %1, ptr noundef %2, ptr noundef nonnull align 8 dereferenceable(137) %4)
          to label %5 unwind label %6

5:                                                ; preds = %3
  call void @_ZN6icu_7711PtnSkeletonD1Ev(ptr noundef nonnull align 8 dereferenceable(137) %4) #35
  call void @llvm.lifetime.end.p0(i64 144, ptr nonnull %4) #35
  ret void

6:                                                ; preds = %3
  %7 = landingpad { ptr, i32 }
          cleanup
  call void @_ZN6icu_7711PtnSkeletonD1Ev(ptr noundef nonnull align 8 dereferenceable(137) %4) #35
  call void @llvm.lifetime.end.p0(i64 144, ptr nonnull %4) #35
  resume { ptr, i32 } %7
}